; Function Attrs: mustprogress uwtable
define internal void @"_ZN4absl12lts_2024072222internal_any_invocable12LocalInvokerILb0EvRZN17grpc_event_engine12experimental17PosixEndpointImplC1EPNS4_11EventHandleEPNS4_18PosixEngineClosureESt10shared_ptrINS4_11EventEngineEEONS4_15MemoryAllocatorERKNS4_15PosixTcpOptionsEE3$_1JNS0_6StatusEEEET0_PNS1_15TypeErasedStateEDpNS1_18ForwardedParameterIT2_E4typeE"(ptr noundef readonly captures(none) %0, ptr noundef nonnull align 8 captures(none) dereferenceable(8) %1) #5 personality ptr @__gxx_personality_v0 {
  %3 = alloca %"class.absl::lts_20240722::Status", align 8
  %4 = alloca %"class.absl::lts_20240722::Status", align 8
  %.val = load ptr, ptr %0, align 8, !tbaa !486
  call void @llvm.lifetime.start.p0(i64 8, ptr nonnull %4)
  %5 = load i64, ptr %1, align 8, !tbaa !82
  store i64 55, ptr %1, align 8, !tbaa !82
  call void @llvm.lifetime.start.p0(i64 8, ptr nonnull %3)
  store i64 %5, ptr %3, align 8, !tbaa !82
  store i64 55, ptr %4, align 8, !tbaa !82
  invoke void @_ZN17grpc_event_engine12experimental17PosixEndpointImpl11HandleWriteEN4absl12lts_202407226StatusE(ptr noundef nonnull align 16 dereferenceable(904) %.val, ptr noundef nonnull %3)
          to label %6 unwind label %.body.i.i.i.i

6:                                                ; preds = %2
  %7 = load i64, ptr %3, align 8, !tbaa !82
  %8 = and i64 %7, 1
  %.not.i.i.i.i.i.i.i = icmp eq i64 %8, 0
  br i1 %.not.i.i.i.i.i.i.i, label %9, label %"_ZN4absl12lts_2024072222internal_any_invocable7InvokeRIvRZN17grpc_event_engine12experimental17PosixEndpointImplC1EPNS4_11EventHandleEPNS4_18PosixEngineClosureESt10shared_ptrINS4_11EventEngineEEONS4_15MemoryAllocatorERKNS4_15PosixTcpOptionsEE3$_1JNS0_6StatusEEvEEvOT0_DpOT1_.exit"

9:                                                ; preds = %6
  %10 = inttoptr i64 %7 to ptr
  invoke void @_ZNK4absl12lts_2024072215status_internal9StatusRep5UnrefEv(ptr noundef nonnull align 8 dereferenceable(48) %10)
          to label %"_ZN4absl12lts_2024072222internal_any_invocable7InvokeRIvRZN17grpc_event_engine12experimental17PosixEndpointImplC1EPNS4_11EventHandleEPNS4_18PosixEngineClosureESt10shared_ptrINS4_11EventEngineEEONS4_15MemoryAllocatorERKNS4_15PosixTcpOptionsEE3$_1JNS0_6StatusEEvEEvOT0_DpOT1_.exit" unwind label %11

11:                                               ; preds = %9
  %12 = landingpad { ptr, i32 }
          catch ptr null
  %13 = extractvalue { ptr, i32 } %12, 0
  call void @__clang_call_terminate(ptr %13) #43
  unreachable

.body.i.i.i.i:                                    ; preds = %2
  %14 = landingpad { ptr, i32 }
          cleanup
  call void @_ZN4absl12lts_202407226StatusD2Ev(ptr noundef nonnull align 8 dereferenceable(8) %3) #41
  call void @_ZN4absl12lts_202407226StatusD2Ev(ptr noundef nonnull align 8 dereferenceable(8) %4) #41
  resume { ptr, i32 } %14

"_ZN4absl12lts_2024072222internal_any_invocable7InvokeRIvRZN17grpc_event_engine12experimental17PosixEndpointImplC1EPNS4_11EventHandleEPNS4_18PosixEngineClosureESt10shared_ptrINS4_11EventEngineEEONS4_15MemoryAllocatorERKNS4_15PosixTcpOptionsEE3$_1JNS0_6StatusEEvEEvOT0_DpOT1_.exit": ; preds = %6, %9
  call void @llvm.lifetime.end.p0(i64 8, ptr nonnull %3)
  call void @llvm.lifetime.end.p0(i64 8, ptr nonnull %4)
  ret void
}